target datalayout = "e-m:e-p270:32:32-p271:32:32-p272:64:64-i64:64-i128:128-f80:128-n8:16:32:64-S128"
target triple = "x86_64-pc-linux-gnu"

@hf_gryphon_reserved = internal global i32 0, align 4
@hf_gryphon_cmd_mode = internal global i32 0, align 4
@.str.1029 = private unnamed_addr constant [18 x i8] c"Always initialize\00", align 1
@.str.1030 = private unnamed_addr constant [41 x i8] c"Initialize if not previously initialized\00", align 1

; Function Attrs: null_pointer_is_valid sspstrong uwtable
define internal i32 @cmd_init(ptr noundef %0, i32 noundef %1, ptr noundef %2) #0 {
  %4 = alloca ptr, align 8
  %5 = alloca i32, align 4
  %6 = alloca ptr, align 8
  %7 = alloca i8, align 1
  store ptr %0, ptr %4, align 8
  store i32 %1, ptr %5, align 4
  store ptr %2, ptr %6, align 8
  call void @llvm.lifetime.start.p0(i64 1, ptr %7) #7
  %8 = load ptr, ptr %4, align 8
  %9 = load i32, ptr %5, align 4
  %10 = call zeroext i8 @tvb_get_uint8(ptr noundef %8, i32 noundef %9)
  store i8 %10, ptr %7, align 1
  %11 = load i8, ptr %7, align 1
  %12 = zext i8 %11 to i32
  %13 = icmp eq i32 %12, 0
  br i1 %13, label %14, label %22

14:                                               ; preds = %3
  %15 = load ptr, ptr %6, align 8
  %16 = load i32, ptr @hf_gryphon_cmd_mode, align 4
  %17 = load ptr, ptr %4, align 8
  %18 = load i32, ptr %5, align 4
  %19 = load i8, ptr %7, align 1
  %20 = zext i8 %19 to i32
  %21 = call ptr (ptr, i32, ptr, i32, i32, i32, ptr, ...) @proto_tree_add_uint_format_value(ptr noundef %15, i32 noundef %16, ptr noundef %17, i32 noundef %18, i32 noundef 1, i32 noundef %20, ptr noundef @.str.1029)
  br label %30

22:                                               ; preds = %3
  %23 = load ptr, ptr %6, align 8
  %24 = load i32, ptr @hf_gryphon_cmd_mode, align 4
  %25 = load ptr, ptr %4, align 8
  %26 = load i32, ptr %5, align 4
  %27 = load i8, ptr %7, align 1
  %28 = zext i8 %27 to i32
  %29 = call ptr (ptr, i32, ptr, i32, i32, i32, ptr, ...) @proto_tree_add_uint_format_value(ptr noundef %23, i32 noundef %24, ptr noundef %25, i32 noundef %26, i32 noundef 1, i32 noundef %28, ptr noundef @.str.1030)
  br label %30

30:                                               ; preds = %22, %14
  %31 = load ptr, ptr %6, align 8
  %32 = load i32, ptr @hf_gryphon_reserved, align 4
  %33 = load ptr, ptr %4, align 8
  %34 = load i32, ptr %5, align 4
  %35 = add i32 %34, 1
  %36 = call ptr @proto_tree_add_item(ptr noundef %31, i32 noundef %32, ptr noundef %33, i32 noundef %35, i32 noundef 3, i32 noundef 0)
  %37 = load i32, ptr %5, align 4
  %38 = add i32 %37, 4
  store i32 %38, ptr %5, align 4
  %39 = load i32, ptr %5, align 4
  call void @llvm.lifetime.end.p0(i64 1, ptr %7) #7
  ret i32 %39
}