; Function Attrs: null_pointer_is_valid sspstrong uwtable
define internal fastcc void @cmd_init(ptr noundef %0, ptr noundef %1) unnamed_addr #0 {
  %3 = tail call zeroext i8 @tvb_get_uint8(ptr noundef %0, i32 noundef 12)
  %4 = icmp eq i8 %3, 0
  br i1 %4, label %5, label %8

5:                                                ; preds = %2
  %6 = load i32, ptr @hf_gryphon_cmd_mode, align 4
  %7 = tail call ptr (ptr, i32, ptr, i32, i32, i32, ptr, ...) @proto_tree_add_uint_format_value(ptr noundef %1, i32 noundef %6, ptr noundef %0, i32 noundef 12, i32 noundef 1, i32 noundef 0, ptr noundef nonnull @.str.1029)
  br label %12

8:                                                ; preds = %2
  %9 = zext i8 %3 to i32
  %10 = load i32, ptr @hf_gryphon_cmd_mode, align 4
  %11 = tail call ptr (ptr, i32, ptr, i32, i32, i32, ptr, ...) @proto_tree_add_uint_format_value(ptr noundef %1, i32 noundef %10, ptr noundef %0, i32 noundef 12, i32 noundef 1, i32 noundef %9, ptr noundef nonnull @.str.1030)
  br label %12

12:                                               ; preds = %8, %5
  %13 = load i32, ptr @hf_gryphon_reserved, align 4
  %14 = tail call ptr @proto_tree_add_item(ptr noundef %1, i32 noundef %13, ptr noundef %0, i32 noundef 13, i32 noundef 3, i32 noundef 0)
  ret void
}